; Function Attrs: mustprogress uwtable
define hidden noundef zeroext i1 @_ZN4cvc58internal6theory9ExtTheory12doInferencesEiRKSt6vectorINS0_12NodeTemplateILb1EEESaIS5_EERS7_(ptr noundef nonnull align 8 dereferenceable(584) %0, i32 noundef %1, ptr noundef nonnull readonly align 8 captures(none) dereferenceable(24) %2, ptr noundef nonnull align 8 dereferenceable(24) %3) local_unnamed_addr #3 align 2 {
  %5 = load ptr, ptr %2, align 8, !tbaa !65
  %6 = getelementptr inbounds nuw i8, ptr %2, i64 8
  %7 = load ptr, ptr %6, align 8, !tbaa !65
  %8 = icmp eq ptr %5, %7
  br i1 %8, label %11, label %9

9:                                                ; preds = %4
  %10 = tail call noundef zeroext i1 @_ZN4cvc58internal6theory9ExtTheory20doInferencesInternalEiRKSt6vectorINS0_12NodeTemplateILb1EEESaIS5_EERS7_(ptr noundef nonnull align 8 dereferenceable(584) %0, i32 noundef %1, ptr noundef nonnull align 8 dereferenceable(24) %2, ptr noundef nonnull align 8 dereferenceable(24) %3)
  br label %11

11:                                               ; preds = %4, %9
  %.0 = phi i1 [ %10, %9 ], [ false, %4 ]
  ret i1 %.0
}